; ModuleID = '22/93.c'
source_filename = "22/93.c"
target datalayout = "e-m:e-p270:32:32-p271:32:32-p272:64:64-i64:64-f80:128-n8:16:32:64-S128"
target triple = "x86_64-pc-linux-gnu"

@.str = private unnamed_addr constant [3 x i8] c"%s\00", align 1
@.str.1 = private unnamed_addr constant [4 x i8] c"No\0A\00", align 1
@.str.2 = private unnamed_addr constant [4 x i8] c"%d\0A\00", align 1

; Function Attrs: noinline nounwind uwtable
define dso_local void @main() #0 {
  %1 = alloca i32, align 4
  %2 = alloca i32, align 4
  %3 = alloca i32, align 4
  %4 = alloca i32, align 4
  %5 = alloca i32, align 4
  %6 = alloca i32, align 4
  %7 = alloca i32, align 4
  %8 = alloca [1500 x i8], align 16
  %9 = bitcast [1500 x i8]* %8 to i8*
  call void @llvm.memset.p0i8.i64(i8* align 16 %9, i8 0, i64 1500, i1 false)
  %10 = getelementptr inbounds [1500 x i8], [1500 x i8]* %8, i64 0, i64 0
  %11 = call i32 (i8*, ...) @__isoc99_scanf(i8* getelementptr inbounds ([3 x i8], [3 x i8]* @.str, i64 0, i64 0), i8* %10)
  %12 = getelementptr inbounds [1500 x i8], [1500 x i8]* %8, i64 0, i64 0
  %13 = call i64 @strlen(i8* %12) #4
  %14 = trunc i64 %13 to i32
  store i32 %14, i32* %1, align 4
  store i32 0, i32* %2, align 4
  store i32 0, i32* %3, align 4
  store i32 0, i32* %7, align 4
  br label %15

15:                                               ; preds = %22, %0
  %16 = load i32, i32* %7, align 4
  %17 = sext i32 %16 to i64
  %18 = getelementptr inbounds [1500 x i8], [1500 x i8]* %8, i64 0, i64 %17
  %19 = load i8, i8* %18, align 1
  %20 = sext i8 %19 to i32
  %21 = icmp ne i32 %20, 44
  br i1 %21, label %22, label %34

22:                                               ; preds = %15
  %23 = load i32, i32* %2, align 4
  %24 = mul nsw i32 %23, 10
  %25 = load i32, i32* %7, align 4
  %26 = sext i32 %25 to i64
  %27 = getelementptr inbounds [1500 x i8], [1500 x i8]* %8, i64 0, i64 %26
  %28 = load i8, i8* %27, align 1
  %29 = sext i8 %28 to i32
  %30 = add nsw i32 %24, %29
  %31 = sub nsw i32 %30, 48
  store i32 %31, i32* %2, align 4
  %32 = load i32, i32* %7, align 4
  %33 = add nsw i32 %32, 1
  store i32 %33, i32* %7, align 4
  br label %15

34:                                               ; preds = %15
  store i32 0, i32* %5, align 4
  %35 = load i32, i32* %7, align 4
  store i32 %35, i32* %4, align 4
  br label %36

36:                                               ; preds = %86, %34
  %37 = load i32, i32* %4, align 4
  %38 = load i32, i32* %1, align 4
  %39 = sub nsw i32 %38, 1
  %40 = icmp sle i32 %37, %39
  br i1 %40, label %41, label %89

41:                                               ; preds = %36
  %42 = load i32, i32* %4, align 4
  %43 = sext i32 %42 to i64
  %44 = getelementptr inbounds [1500 x i8], [1500 x i8]* %8, i64 0, i64 %43
  %45 = load i8, i8* %44, align 1
  %46 = sext i8 %45 to i32
  %47 = icmp ne i32 %46, 44
  br i1 %47, label %48, label %49

48:                                               ; preds = %41
  store i32 1, i32* %6, align 4
  br label %72

49:                                               ; preds = %41
  %50 = load i32, i32* %5, align 4
  %51 = load i32, i32* %2, align 4
  %52 = icmp sgt i32 %50, %51
  br i1 %52, label %53, label %61

53:                                               ; preds = %49
  %54 = load i32, i32* %2, align 4
  %55 = load i32, i32* %3, align 4
  %56 = icmp sgt i32 %54, %55
  br i1 %56, label %57, label %59

57:                                               ; preds = %53
  %58 = load i32, i32* %2, align 4
  store i32 %58, i32* %3, align 4
  br label %59

59:                                               ; preds = %57, %53
  %60 = load i32, i32* %5, align 4
  store i32 %60, i32* %2, align 4
  br label %61

61:                                               ; preds = %59, %49
  %62 = load i32, i32* %5, align 4
  %63 = load i32, i32* %3, align 4
  %64 = icmp sgt i32 %62, %63
  br i1 %64, label %65, label %71

65:                                               ; preds = %61
  %66 = load i32, i32* %5, align 4
  %67 = load i32, i32* %2, align 4
  %68 = icmp ne i32 %66, %67
  br i1 %68, label %69, label %71

69:                                               ; preds = %65
  %70 = load i32, i32* %5, align 4
  store i32 %70, i32* %3, align 4
  br label %71

71:                                               ; preds = %69, %65, %61
  store i32 0, i32* %5, align 4
  store i32 0, i32* %6, align 4
  br label %72

72:                                               ; preds = %71, %48
  %73 = load i32, i32* %6, align 4
  %74 = icmp eq i32 %73, 1
  br i1 %74, label %75, label %85

75:                                               ; preds = %72
  %76 = load i32, i32* %5, align 4
  %77 = mul nsw i32 %76, 10
  %78 = load i32, i32* %4, align 4
  %79 = sext i32 %78 to i64
  %80 = getelementptr inbounds [1500 x i8], [1500 x i8]* %8, i64 0, i64 %79
  %81 = load i8, i8* %80, align 1
  %82 = sext i8 %81 to i32
  %83 = sub nsw i32 %82, 48
  %84 = add nsw i32 %77, %83
  store i32 %84, i32* %5, align 4
  br label %85

85:                                               ; preds = %75, %72
  br label %86

86:                                               ; preds = %85
  %87 = load i32, i32* %4, align 4
  %88 = add nsw i32 %87, 1
  store i32 %88, i32* %4, align 4
  br label %36

89:                                               ; preds = %36
  %90 = load i32, i32* %5, align 4
  %91 = load i32, i32* %2, align 4
  %92 = icmp sgt i32 %90, %91
  br i1 %92, label %93, label %101

93:                                               ; preds = %89
  %94 = load i32, i32* %2, align 4
  %95 = load i32, i32* %3, align 4
  %96 = icmp sgt i32 %94, %95
  br i1 %96, label %97, label %99

97:                                               ; preds = %93
  %98 = load i32, i32* %2, align 4
  store i32 %98, i32* %3, align 4
  br label %99

99:                                               ; preds = %97, %93
  %100 = load i32, i32* %5, align 4
  store i32 %100, i32* %2, align 4
  br label %101

101:                                              ; preds = %99, %89
  %102 = load i32, i32* %5, align 4
  %103 = load i32, i32* %3, align 4
  %104 = icmp sgt i32 %102, %103
  br i1 %104, label %105, label %111

105:                                              ; preds = %101
  %106 = load i32, i32* %5, align 4
  %107 = load i32, i32* %2, align 4
  %108 = icmp ne i32 %106, %107
  br i1 %108, label %109, label %111

109:                                              ; preds = %105
  %110 = load i32, i32* %5, align 4
  store i32 %110, i32* %3, align 4
  br label %111

111:                                              ; preds = %109, %105, %101
  %112 = load i32, i32* %3, align 4
  %113 = icmp eq i32 %112, 0
  br i1 %113, label %114, label %116

114:                                              ; preds = %111
  %115 = call i32 (i8*, ...) @printf(i8* getelementptr inbounds ([4 x i8], [4 x i8]* @.str.1, i64 0, i64 0))
  br label %119

116:                                              ; preds = %111
  %117 = load i32, i32* %3, align 4
  %118 = call i32 (i8*, ...) @printf(i8* getelementptr inbounds ([4 x i8], [4 x i8]* @.str.2, i64 0, i64 0), i32 %117)
  br label %119

119:                                              ; preds = %116, %114
  ret void
}

; Function Attrs: argmemonly nounwind willreturn
declare void @llvm.memset.p0i8.i64(i8* nocapture writeonly, i8, i64, i1 immarg) #1

declare dso_local i32 @__isoc99_scanf(i8*, ...) #2

; Function Attrs: nounwind readonly
declare dso_local i64 @strlen(i8*) #3

declare dso_local i32 @printf(i8*, ...) #2


!llvm.module.flags = !{!0}
!llvm.ident = !{!1}

!0 = !{i32 1, !"wchar_size", i32 4}
!1 = !{!"clang version 10.0.0-4ubuntu1 "}
